; Function Attrs: mustprogress nounwind uwtable
define dso_local void @_ZN5clang14TextNodeDumper18VisitCXXDeleteExprEPKNS_13CXXDeleteExprE(ptr noundef nonnull align 8 dereferenceable(1168) %0, ptr nocapture noundef readonly %1) local_unnamed_addr #0 align 2 {
  %3 = load i32, ptr %1, align 8
  %4 = and i32 %3, 262144
  %.not8 = icmp eq i32 %4, 0
  br i1 %.not8, label %_ZN4llvm11raw_ostreamlsEPKc.exit, label %5

5:                                                ; preds = %2
  %6 = getelementptr inbounds nuw i8, ptr %0, i64 1096
  %7 = load ptr, ptr %6, align 8
  %8 = getelementptr inbounds nuw i8, ptr %7, i64 24
  %9 = load ptr, ptr %8, align 8
  %10 = getelementptr inbounds nuw i8, ptr %7, i64 32
  %11 = load ptr, ptr %10, align 8
  %12 = ptrtoint ptr %9 to i64
  %13 = ptrtoint ptr %11 to i64
  %14 = sub i64 %12, %13
  %15 = icmp ult i64 %14, 7
  br i1 %15, label %16, label %18

16:                                               ; preds = %5
  %17 = tail call noundef nonnull align 8 dereferenceable(48) ptr @_ZN4llvm11raw_ostream5writeEPKcm(ptr noundef nonnull align 8 dereferenceable(48) %7, ptr noundef nonnull @.str.625, i64 noundef 7) #18
  br label %_ZN4llvm11raw_ostreamlsEPKc.exit

18:                                               ; preds = %5
  tail call void @llvm.memcpy.p0.p0.i64(ptr noundef nonnull align 1 dereferenceable(7) %11, ptr noundef nonnull align 1 dereferenceable(7) @.str.625, i64 7, i1 false)
  %19 = load ptr, ptr %10, align 8
  %20 = getelementptr inbounds i8, ptr %19, i64 7
  store ptr %20, ptr %10, align 8
  br label %_ZN4llvm11raw_ostreamlsEPKc.exit

_ZN4llvm11raw_ostreamlsEPKc.exit:                 ; preds = %18, %16, %2
  %21 = load i32, ptr %1, align 8
  %22 = and i32 %21, 524288
  %.not9 = icmp eq i32 %22, 0
  br i1 %.not9, label %_ZN4llvm11raw_ostreamlsEPKc.exit7, label %23

23:                                               ; preds = %_ZN4llvm11raw_ostreamlsEPKc.exit
  %24 = getelementptr inbounds nuw i8, ptr %0, i64 1096
  %25 = load ptr, ptr %24, align 8
  %26 = getelementptr inbounds nuw i8, ptr %25, i64 24
  %27 = load ptr, ptr %26, align 8
  %28 = getelementptr inbounds nuw i8, ptr %25, i64 32
  %29 = load ptr, ptr %28, align 8
  %30 = ptrtoint ptr %27 to i64
  %31 = ptrtoint ptr %29 to i64
  %32 = sub i64 %30, %31
  %33 = icmp ult i64 %32, 6
  br i1 %33, label %34, label %36

34:                                               ; preds = %23
  %35 = tail call noundef nonnull align 8 dereferenceable(48) ptr @_ZN4llvm11raw_ostream5writeEPKcm(ptr noundef nonnull align 8 dereferenceable(48) %25, ptr noundef nonnull @.str.626, i64 noundef 6) #18
  br label %_ZN4llvm11raw_ostreamlsEPKc.exit7

36:                                               ; preds = %23
  tail call void @llvm.memcpy.p0.p0.i64(ptr noundef nonnull align 1 dereferenceable(6) %29, ptr noundef nonnull align 1 dereferenceable(6) @.str.626, i64 6, i1 false)
  %37 = load ptr, ptr %28, align 8
  %38 = getelementptr inbounds i8, ptr %37, i64 6
  store ptr %38, ptr %28, align 8
  br label %_ZN4llvm11raw_ostreamlsEPKc.exit7

_ZN4llvm11raw_ostreamlsEPKc.exit7:                ; preds = %36, %34, %_ZN4llvm11raw_ostreamlsEPKc.exit
  %39 = getelementptr inbounds nuw i8, ptr %1, i64 16
  %40 = load ptr, ptr %39, align 8
  %.not = icmp eq ptr %40, null
  br i1 %.not, label %53, label %41

41:                                               ; preds = %_ZN4llvm11raw_ostreamlsEPKc.exit7
  %42 = getelementptr inbounds nuw i8, ptr %0, i64 1096
  %43 = load ptr, ptr %42, align 8
  %44 = getelementptr inbounds nuw i8, ptr %43, i64 32
  %45 = load ptr, ptr %44, align 8
  %46 = getelementptr inbounds nuw i8, ptr %43, i64 24
  %47 = load ptr, ptr %46, align 8
  %.not.i = icmp ult ptr %45, %47
  br i1 %.not.i, label %50, label %48

48:                                               ; preds = %41
  %49 = tail call noundef nonnull align 8 dereferenceable(48) ptr @_ZN4llvm11raw_ostream5writeEh(ptr noundef nonnull align 8 dereferenceable(48) %43, i8 noundef zeroext 32) #18
  br label %_ZN4llvm11raw_ostreamlsEc.exit

50:                                               ; preds = %41
  %51 = getelementptr inbounds i8, ptr %45, i64 1
  store ptr %51, ptr %44, align 8
  store i8 32, ptr %45, align 1
  br label %_ZN4llvm11raw_ostreamlsEc.exit

_ZN4llvm11raw_ostreamlsEc.exit:                   ; preds = %48, %50
  %52 = load ptr, ptr %39, align 8
  tail call void @_ZN5clang14TextNodeDumper15dumpBareDeclRefEPKNS_4DeclE(ptr noundef nonnull align 8 dereferenceable(1168) %0, ptr noundef %52)
  br label %53

53:                                               ; preds = %_ZN4llvm11raw_ostreamlsEc.exit, %_ZN4llvm11raw_ostreamlsEPKc.exit7
  ret void
}